#include <math.h>
#include <stdio.h>
#include <stdlib.h>
#include <string.h>

char* minus(char*a,char*b)
{
	int i, j;
	for(i=strlen(a)-1,j=strlen(b)-1;j>=0;i--,j--)
	{
		a[i]-=(b[j]-'0');
		if(a[i]<'0')
		{
			a[i]+=10;
			a[i-1]--;
		}
	}
	return a;
}
int main()
{
	char a[10][100],b[10][100];
	int n;
	scanf("%d",&n);
	int i;
	for(i=0;i<n;i++)
	{
		
		scanf("%s\n%s",a[i],b[i]);
		printf("\n");
	
	}
	for(i=0;i<n;i++)
	printf("%s\n",minus(a[i],b[i]));
	return 0;
}


	